target datalayout = "e-m:e-p270:32:32-p271:32:32-p272:64:64-i64:64-i128:128-f80:128-n8:16:32:64-S128"
target triple = "x86_64-pc-linux-gnu"

%struct.ems_msg_s = type { i32, i32, i32, i32, i32, i32, i32, i32, [3 x i8], i32, i32, [64 x i8] }
%struct.wtap = type { ptr, ptr, i8, i32, i32, ptr, ptr, ptr, i32, ptr, ptr, ptr, ptr, ptr, ptr, ptr, ptr, ptr, ptr, i32, i32, ptr, ptr, ptr, ptr }

@ems_file_type_subtype = internal global i32 -1, align 4

; Function Attrs: null_pointer_is_valid sspstrong uwtable
define hidden i32 @ems_open(ptr noundef %0, ptr noundef %1, ptr noundef %2) #0 {
  %4 = alloca i32, align 4
  %5 = alloca ptr, align 8
  %6 = alloca ptr, align 8
  %7 = alloca ptr, align 8
  %8 = alloca [1024 x i8], align 16
  %9 = alloca %struct.ems_msg_s, align 4
  %10 = alloca i32, align 4
  store ptr %0, ptr %5, align 8
  store ptr %1, ptr %6, align 8
  store ptr %2, ptr %7, align 8
  call void @llvm.lifetime.start.p0(i64 1024, ptr %8) #6
  call void @llvm.lifetime.start.p0(i64 108, ptr %9) #6
  br label %11

11:                                               ; preds = %3
  br label %12

12:                                               ; preds = %11
  br label %13

13:                                               ; preds = %12
  %14 = getelementptr inbounds [1024 x i8], ptr %8, i64 0, i64 0
  %15 = load ptr, ptr %5, align 8
  %16 = getelementptr inbounds nuw %struct.wtap, ptr %15, i32 0, i32 0
  %17 = load ptr, ptr %16, align 8
  %18 = call ptr @file_gets(ptr noundef %14, i32 noundef 1024, ptr noundef %17)
  %19 = icmp ne ptr %18, null
  br i1 %19, label %21, label %20

20:                                               ; preds = %13
  store i32 -1, ptr %4, align 4
  store i32 1, ptr %10, align 4
  br label %52

21:                                               ; preds = %13
  %22 = call zeroext i1 @parse(ptr noundef %8, ptr noundef %9)
  br i1 %22, label %23, label %51

23:                                               ; preds = %21
  %24 = load ptr, ptr %5, align 8
  %25 = getelementptr inbounds nuw %struct.wtap, ptr %24, i32 0, i32 0
  %26 = load ptr, ptr %25, align 8
  %27 = load ptr, ptr %6, align 8
  %28 = call i64 @file_seek(ptr noundef %26, i64 noundef 0, i32 noundef 0, ptr noundef %27)
  %29 = icmp eq i64 %28, -1
  br i1 %29, label %30, label %37

30:                                               ; preds = %23
  %31 = load ptr, ptr %5, align 8
  %32 = getelementptr inbounds nuw %struct.wtap, ptr %31, i32 0, i32 0
  %33 = load ptr, ptr %32, align 8
  %34 = load ptr, ptr %7, align 8
  %35 = call i32 @file_error(ptr noundef %33, ptr noundef %34)
  %36 = load ptr, ptr %6, align 8
  store i32 %35, ptr %36, align 4
  store i32 -1, ptr %4, align 4
  store i32 1, ptr %10, align 4
  br label %52

37:                                               ; preds = %23
  %38 = load ptr, ptr %5, align 8
  %39 = getelementptr inbounds nuw %struct.wtap, ptr %38, i32 0, i32 19
  store i32 224, ptr %39, align 8
  %40 = load ptr, ptr %5, align 8
  %41 = getelementptr inbounds nuw %struct.wtap, ptr %40, i32 0, i32 4
  store i32 0, ptr %41, align 8
  %42 = load ptr, ptr %5, align 8
  %43 = getelementptr inbounds nuw %struct.wtap, ptr %42, i32 0, i32 20
  store i32 0, ptr %43, align 4
  %44 = load ptr, ptr %5, align 8
  %45 = getelementptr inbounds nuw %struct.wtap, ptr %44, i32 0, i32 15
  store ptr @ems_read, ptr %45, align 8
  %46 = load ptr, ptr %5, align 8
  %47 = getelementptr inbounds nuw %struct.wtap, ptr %46, i32 0, i32 16
  store ptr @ems_seek_read, ptr %47, align 8
  %48 = load i32, ptr @ems_file_type_subtype, align 4
  %49 = load ptr, ptr %5, align 8
  %50 = getelementptr inbounds nuw %struct.wtap, ptr %49, i32 0, i32 3
  store i32 %48, ptr %50, align 4
  store i32 1, ptr %4, align 4
  store i32 1, ptr %10, align 4
  br label %52

51:                                               ; preds = %21
  store i32 0, ptr %4, align 4
  store i32 1, ptr %10, align 4
  br label %52

52:                                               ; preds = %51, %37, %30, %20
  call void @llvm.lifetime.end.p0(i64 108, ptr %9) #6
  call void @llvm.lifetime.end.p0(i64 1024, ptr %8) #6
  %53 = load i32, ptr %4, align 4
  ret i32 %53
}