; Function Attrs: null_pointer_is_valid sspstrong uwtable
define hidden range(i32 -1, 2) i32 @ems_open(ptr noundef captures(none) %0, ptr noundef %1, ptr noundef %2) local_unnamed_addr #0 {
  %4 = alloca [1024 x i8], align 16
  %5 = alloca %struct.ems_msg_s, align 4
  call void @llvm.lifetime.start.p0(i64 1024, ptr nonnull %4) #7
  call void @llvm.lifetime.start.p0(i64 108, ptr nonnull %5) #7
  %6 = load ptr, ptr %0, align 8
  %7 = call ptr @file_gets(ptr noundef nonnull %4, i32 noundef 1024, ptr noundef %6)
  %.not = icmp eq ptr %7, null
  br i1 %.not, label %25, label %8

8:                                                ; preds = %3
  %9 = call fastcc zeroext i1 @parse(ptr noundef nonnull %4, ptr noundef nonnull %5)
  br i1 %9, label %10, label %25

10:                                               ; preds = %8
  %11 = load ptr, ptr %0, align 8
  %12 = call i64 @file_seek(ptr noundef %11, i64 noundef 0, i32 noundef 0, ptr noundef %1)
  %13 = icmp eq i64 %12, -1
  br i1 %13, label %14, label %17

14:                                               ; preds = %10
  %15 = load ptr, ptr %0, align 8
  %16 = call i32 @file_error(ptr noundef %15, ptr noundef %2)
  store i32 %16, ptr %1, align 4
  br label %25

17:                                               ; preds = %10
  %18 = getelementptr inbounds nuw i8, ptr %0, i64 144
  store i32 224, ptr %18, align 8
  %19 = getelementptr inbounds nuw i8, ptr %0, i64 24
  store i32 0, ptr %19, align 8
  %20 = getelementptr inbounds nuw i8, ptr %0, i64 148
  store i32 0, ptr %20, align 4
  %21 = getelementptr inbounds nuw i8, ptr %0, i64 112
  store ptr @ems_read, ptr %21, align 8
  %22 = getelementptr inbounds nuw i8, ptr %0, i64 120
  store ptr @ems_seek_read, ptr %22, align 8
  %23 = load i32, ptr @ems_file_type_subtype, align 4
  %24 = getelementptr inbounds nuw i8, ptr %0, i64 20
  store i32 %23, ptr %24, align 4
  br label %25

25:                                               ; preds = %8, %3, %17, %14
  %.0 = phi i32 [ -1, %14 ], [ 1, %17 ], [ -1, %3 ], [ 0, %8 ]
  call void @llvm.lifetime.end.p0(i64 108, ptr nonnull %5) #7
  call void @llvm.lifetime.end.p0(i64 1024, ptr nonnull %4) #7
  ret i32 %.0
}